target datalayout = "e-m:e-p270:32:32-p271:32:32-p272:64:64-i64:64-i128:128-f80:128-n8:16:32:64-S128"
target triple = "x86_64-pc-linux-gnu"

%struct.ossl_store_search_st = type { i32, ptr, ptr, ptr, ptr, i64 }

@.str.2 = private unnamed_addr constant [36 x i8] c"../openssl/crypto/store/store_lib.c\00", align 1

; Function Attrs: nounwind uwtable
define ptr @OSSL_STORE_SEARCH_by_name(ptr noundef %0) #0 {
  %2 = alloca ptr, align 8
  %3 = alloca ptr, align 8
  %4 = alloca ptr, align 8
  %5 = alloca i32, align 4
  store ptr %0, ptr %3, align 8, !tbaa !99
  call void @llvm.lifetime.start.p0(i64 8, ptr %4) #8
  %6 = call noalias ptr @CRYPTO_zalloc(i64 noundef 48, ptr noundef @.str.2, i32 noundef 907)
  store ptr %6, ptr %4, align 8, !tbaa !60
  %7 = load ptr, ptr %4, align 8, !tbaa !60
  %8 = icmp eq ptr %7, null
  br i1 %8, label %9, label %10

9:                                                ; preds = %1
  store ptr null, ptr %2, align 8
  store i32 1, ptr %5, align 4
  br label %17

10:                                               ; preds = %1
  %11 = load ptr, ptr %4, align 8, !tbaa !60
  %12 = getelementptr inbounds nuw %struct.ossl_store_search_st, ptr %11, i32 0, i32 0
  store i32 1, ptr %12, align 8, !tbaa !66
  %13 = load ptr, ptr %3, align 8, !tbaa !99
  %14 = load ptr, ptr %4, align 8, !tbaa !60
  %15 = getelementptr inbounds nuw %struct.ossl_store_search_st, ptr %14, i32 0, i32 1
  store ptr %13, ptr %15, align 8, !tbaa !71
  %16 = load ptr, ptr %4, align 8, !tbaa !60
  store ptr %16, ptr %2, align 8
  store i32 1, ptr %5, align 4
  br label %17

17:                                               ; preds = %10, %9
  call void @llvm.lifetime.end.p0(i64 8, ptr %4) #8
  %18 = load ptr, ptr %2, align 8
  ret ptr %18
}